; Function Attrs: mustprogress uwtable
define noundef ptr @_ZN6google8protobuf8internal18EpsCopyInputStream12SkipFallbackEPKci(ptr noundef nonnull align 8 dereferenceable(88) %this, ptr noundef %ptr, i32 noundef %size) local_unnamed_addr #4 align 2 {
entry:
  %buffer_end_.i = getelementptr inbounds nuw i8, ptr %this, i64 8
  %0 = load ptr, ptr %buffer_end_.i, align 8
  %add.ptr.i = getelementptr inbounds nuw i8, ptr %0, i64 16
  %sub.ptr.lhs.cast.i = ptrtoint ptr %add.ptr.i to i64
  %sub.ptr.rhs.cast.i = ptrtoint ptr %ptr to i64
  %sub.ptr.sub.i = sub i64 %sub.ptr.lhs.cast.i, %sub.ptr.rhs.cast.i
  %conv.i = trunc i64 %sub.ptr.sub.i to i32
  %next_chunk_.i = getelementptr inbounds nuw i8, ptr %this, i64 16
  %limit_.i = getelementptr inbounds nuw i8, ptr %this, i64 28
  br label %do.body.i

do.body.i:                                        ; preds = %if.end8.i, %entry
  %size.addr.0.i = phi i32 [ %size, %entry ], [ %sub.i, %if.end8.i ]
  %chunk_size.0.i = phi i32 [ %conv.i, %entry ], [ %conv15.i, %if.end8.i ]
  %1 = load ptr, ptr %next_chunk_.i, align 8
  %cmp.i = icmp eq ptr %1, null
  br i1 %cmp.i, label %"_ZN6google8protobuf8internal18EpsCopyInputStream10AppendSizeIZNS2_12SkipFallbackEPKciE3$_0EES5_S5_iRKT_.exit", label %if.end.i

if.end.i:                                         ; preds = %do.body.i
  %sub.i = sub nsw i32 %size.addr.0.i, %chunk_size.0.i
  %2 = load i32, ptr %limit_.i, align 4
  %cmp3.i = icmp slt i32 %2, 17
  br i1 %cmp3.i, label %"_ZN6google8protobuf8internal18EpsCopyInputStream10AppendSizeIZNS2_12SkipFallbackEPKciE3$_0EES5_S5_iRKT_.exit", label %if.end5.i

if.end5.i:                                        ; preds = %if.end.i
  %call.i.i = tail call noundef ptr @_ZN6google8protobuf8internal18EpsCopyInputStream10NextBufferEii(ptr noundef nonnull align 8 dereferenceable(88) %this, i32 noundef 0, i32 noundef -1)
  %cmp.i.i = icmp eq ptr %call.i.i, null
  %3 = load ptr, ptr %buffer_end_.i, align 8
  br i1 %cmp.i.i, label %_ZN6google8protobuf8internal18EpsCopyInputStream4NextEv.exit.thread.i, label %if.end8.i

_ZN6google8protobuf8internal18EpsCopyInputStream4NextEv.exit.thread.i: ; preds = %if.end5.i
  %last_tag_minus_1_.i.i.i = getelementptr inbounds nuw i8, ptr %this, i64 80
  store i32 1, ptr %last_tag_minus_1_.i.i.i, align 8
  store ptr %3, ptr %this, align 8
  br label %"_ZN6google8protobuf8internal18EpsCopyInputStream10AppendSizeIZNS2_12SkipFallbackEPKciE3$_0EES5_S5_iRKT_.exit"

if.end8.i:                                        ; preds = %if.end5.i
  %sub.ptr.lhs.cast.i.i = ptrtoint ptr %3 to i64
  %sub.ptr.rhs.cast.i.i = ptrtoint ptr %call.i.i to i64
  %sub.ptr.sub.neg.i.i = sub i64 %sub.ptr.rhs.cast.i.i, %sub.ptr.lhs.cast.i.i
  %4 = load i32, ptr %limit_.i, align 4
  %5 = trunc i64 %sub.ptr.sub.neg.i.i to i32
  %conv3.i.i = add i32 %4, %5
  store i32 %conv3.i.i, ptr %limit_.i, align 4
  %.sroa.speculated.i.i = tail call i32 @llvm.smin.i32(i32 %conv3.i.i, i32 0)
  %idx.ext.i.i = sext i32 %.sroa.speculated.i.i to i64
  %add.ptr.i.i = getelementptr inbounds i8, ptr %3, i64 %idx.ext.i.i
  store ptr %add.ptr.i.i, ptr %this, align 8
  %add.ptr9.i = getelementptr inbounds nuw i8, ptr %call.i.i, i64 16
  %add.ptr11.i = getelementptr inbounds nuw i8, ptr %3, i64 16
  %sub.ptr.lhs.cast12.i = ptrtoint ptr %add.ptr11.i to i64
  %sub.ptr.rhs.cast13.i = ptrtoint ptr %add.ptr9.i to i64
  %sub.ptr.sub14.i = sub i64 %sub.ptr.lhs.cast12.i, %sub.ptr.rhs.cast13.i
  %conv15.i = trunc i64 %sub.ptr.sub14.i to i32
  %cmp16.i = icmp sgt i32 %sub.i, %conv15.i
  br i1 %cmp16.i, label %do.body.i, label %do.end.i, !llvm.loop !11

do.end.i:                                         ; preds = %if.end8.i
  %idx.ext17.i = sext i32 %sub.i to i64
  %add.ptr18.i = getelementptr inbounds i8, ptr %add.ptr9.i, i64 %idx.ext17.i
  br label %"_ZN6google8protobuf8internal18EpsCopyInputStream10AppendSizeIZNS2_12SkipFallbackEPKciE3$_0EES5_S5_iRKT_.exit"

"_ZN6google8protobuf8internal18EpsCopyInputStream10AppendSizeIZNS2_12SkipFallbackEPKciE3$_0EES5_S5_iRKT_.exit": ; preds = %do.body.i, %if.end.i, %_ZN6google8protobuf8internal18EpsCopyInputStream4NextEv.exit.thread.i, %do.end.i
  %retval.0.i = phi ptr [ %add.ptr18.i, %do.end.i ], [ null, %_ZN6google8protobuf8internal18EpsCopyInputStream4NextEv.exit.thread.i ], [ null, %if.end.i ], [ null, %do.body.i ]
  ret ptr %retval.0.i
}